Certificate:
    Data:
        Version: 3 (0x2)
        Serial Number: 4096 (0x1000)
        Signature Algorithm: sha256WithRSAEncryption
        Issuer: CN=www.modelCA.com, O=Model CA LTD., C=US
        Validity
            Not Before: Apr 28 16:58:35 2022 GMT
            Not After : Apr 25 16:58:35 2032 GMT
        Subject: C=US, O=Adams LLC. Inc., CN=www.adams2022.com
        Subject Public Key Info:
            Public Key Algorithm: rsaEncryption
                RSA Public-Key: (2048 bit)
                Modulus:
                    00:c5:9e:ec:da:92:d7:16:ef:85:39:c4:f7:e4:b0:
                    dc:54:2b:73:c7:f5:18:85:ac:e7:25:31:ad:31:22:
                    e1:03:ea:90:e7:d7:c1:0c:e4:73:5e:2c:79:ad:85:
                    ff:0b:f5:27:4b:4a:e6:df:29:8c:51:80:45:7f:21:
                    fa:2e:49:79:66:a2:f8:5d:54:22:73:5e:8a:e6:e1:
                    a1:33:6b:8a:73:5b:15:d9:bd:ec:c1:66:4b:c1:9e:
                    89:98:5d:3c:b1:32:58:24:75:29:85:0a:4e:b4:4c:
                    7e:aa:a3:f0:31:02:22:0e:2d:9c:08:b8:cb:ed:25:
                    be:d8:5a:03:4f:18:16:1d:42:7e:c6:34:a8:c6:c5:
                    68:64:c8:9d:12:5b:a4:74:41:1f:dd:a4:4a:67:2c:
                    5e:51:a2:8f:a6:fe:f6:09:03:23:05:ca:c6:23:03:
                    b7:92:a2:bd:bc:2e:63:cd:ca:1d:c0:7b:72:98:8d:
                    37:db:3a:b5:76:a3:b6:80:67:31:4b:84:a5:b5:c0:
                    37:c7:3b:dd:43:f7:b8:d6:f2:e9:42:60:12:ca:87:
                    88:3d:4b:96:f1:b3:83:64:0c:45:0a:51:48:d5:10:
                    9d:49:47:10:c1:34:77:57:f8:68:f6:15:72:8d:4f:
                    e3:2f:ba:25:74:3e:3b:49:f6:b3:17:12:f1:dd:20:
                    5a:dd
                Exponent: 65537 (0x10001)
        X509v3 extensions:
            X509v3 Basic Constraints: 
                CA:FALSE
            Netscape Comment: 
                OpenSSL Generated Certificate
            X509v3 Subject Key Identifier: 
                A9:15:E3:46:35:43:41:AA:71:B9:7A:A8:CB:E4:0A:FC:05:39:1B:AE
            X509v3 Authority Key Identifier: 
                keyid:D5:69:A7:0A:1E:7E:21:E8:A4:14:BC:AE:EF:AF:31:E6:1D:92:FA:83

    Signature Algorithm: sha256WithRSAEncryption
         5e:31:05:d1:86:93:c8:e9:b0:78:1a:a1:92:6d:29:1c:82:6c:
         3e:6b:3b:96:12:ce:f7:0c:a7:1f:4a:14:12:2c:ed:1f:52:31:
         4a:6a:a8:6d:73:aa:90:eb:80:1f:d4:9a:18:9a:1a:d3:c9:18:
         3a:d2:81:fc:38:ae:c1:44:33:0f:cc:79:ff:b0:55:24:37:86:
         ef:08:cf:c0:8f:5f:b7:f0:42:df:2c:e1:72:f6:0c:92:7f:4a:
         b2:96:66:4f:fa:dd:76:64:ea:07:22:6a:b5:12:76:a8:93:2f:
         f5:4e:de:b0:28:c0:8d:3d:8c:4b:5c:71:08:31:3f:25:23:35:
         e0:42:23:cc:b0:0f:9c:20:68:45:93:34:af:19:f5:56:f5:d8:
         84:0c:1a:a9:a3:02:4a:ef:1a:c2:76:b4:e4:96:a7:c8:96:75:
         36:7f:a2:d1:8a:a7:49:a0:14:65:3b:df:86:2e:7a:fe:0a:c7:
         c8:1b:4a:62:dd:f6:08:f6:96:56:11:e1:78:dd:cc:03:fc:36:
         c4:5a:69:a7:cd:61:c7:e8:03:67:b2:5b:62:4a:43:40:8b:98:
         df:a2:54:33:d5:6a:e2:18:e9:87:2a:e2:b6:02:92:9e:32:e7:
         a8:45:9e:52:4b:d7:95:a0:6e:a1:5f:7e:23:84:d2:92:8c:00:
         af:45:ec:0a:16:bd:76:1b:02:b4:d6:63:59:d1:0b:81:cf:c0:
         bc:0e:35:87:b4:e4:07:54:bf:e5:42:36:3b:62:3c:d0:35:8f:
         77:42:69:6f:50:e8:e3:ff:f2:55:81:9f:5c:e8:ab:8d:37:cc:
         57:f6:76:6a:5a:f6:db:be:a0:b2:fa:54:ae:48:3e:4e:fd:5b:
         fe:fa:56:0f:c8:b9:8f:b1:3d:6d:c0:e9:40:3d:75:82:48:c6:
         f1:34:b4:c3:96:e1:e3:e7:cd:d4:21:40:36:2e:71:75:b8:8d:
         fb:1c:4d:39:5e:fa:de:bd:fb:0d:12:86:b0:a0:04:b1:67:db:
         e7:1b:db:46:3d:09:70:b7:21:e8:78:ab:08:4d:de:a3:e4:79:
         85:1b:c8:7c:2a:09:1e:8f:bb:95:57:27:d8:e8:db:ca:b6:1d:
         cc:bc:0b:45:f9:e9:67:96:3d:79:8b:3d:f3:c5:ba:83:5a:1d:
         59:ad:7e:5a:d8:56:ad:51:b2:18:d2:05:aa:42:00:ef:03:c8:
         14:cb:f2:c4:24:5a:49:25:48:13:d8:cf:0c:74:d2:f8:e6:22:
         3f:ca:b3:5e:a9:22:42:45:f3:34:30:9a:49:1b:c2:fc:cf:36:
         77:fa:e7:67:e0:51:f3:1e:e0:08:65:91:01:ce:ea:b2:1d:b4:
         59:da:3a:f3:81:35:60:1f
-----BEGIN CERTIFICATE-----
MIIEeTCCAmGgAwIBAgICEAAwDQYJKoZIhvcNAQELBQAwPzEYMBYGA1UEAwwPd3d3
Lm1vZGVsQ0EuY29tMRYwFAYDVQQKDA1Nb2RlbCBDQSBMVEQuMQswCQYDVQQGEwJV
UzAeFw0yMjA0MjgxNjU4MzVaFw0zMjA0MjUxNjU4MzVaMEMxCzAJBgNVBAYTAlVT
MRgwFgYDVQQKDA9BZGFtcyBMTEMuIEluYy4xGjAYBgNVBAMMEXd3dy5hZGFtczIw
MjIuY29tMIIBIjANBgkqhkiG9w0BAQEFAAOCAQ8AMIIBCgKCAQEAxZ7s2pLXFu+F
OcT35LDcVCtzx/UYhaznJTGtMSLhA+qQ59fBDORzXix5rYX/C/UnS0rm3ymMUYBF
fyH6Lkl5ZqL4XVQic16K5uGhM2uKc1sV2b3swWZLwZ6JmF08sTJYJHUphQpOtEx+
qqPwMQIiDi2cCLjL7SW+2FoDTxgWHUJ+xjSoxsVoZMidElukdEEf3aRKZyxeUaKP
pv72CQMjBcrGIwO3kqK9vC5jzcodwHtymI032zq1dqO2gGcxS4SltcA3xzvdQ/e4
1vLpQmASyoeIPUuW8bODZAxFClFI1RCdSUcQwTR3V/ho9hVyjU/jL7oldD47Sfaz
FxLx3SBa3QIDAQABo3sweTAJBgNVHRMEAjAAMCwGCWCGSAGG+EIBDQQfFh1PcGVu
U1NMIEdlbmVyYXRlZCBDZXJ0aWZpY2F0ZTAdBgNVHQ4EFgQUqRXjRjVDQapxuXqo
y+QK/AU5G64wHwYDVR0jBBgwFoAU1WmnCh5+IeikFLyu768x5h2S+oMwDQYJKoZI
hvcNAQELBQADggIBAF4xBdGGk8jpsHgaoZJtKRyCbD5rO5YSzvcMpx9KFBIs7R9S
MUpqqG1zqpDrgB/UmhiaGtPJGDrSgfw4rsFEMw/Mef+wVSQ3hu8Iz8CPX7fwQt8s
4XL2DJJ/SrKWZk/63XZk6gciarUSdqiTL/VO3rAowI09jEtccQgxPyUjNeBCI8yw
D5wgaEWTNK8Z9Vb12IQMGqmjAkrvGsJ2tOSWp8iWdTZ/otGKp0mgFGU734Yuev4K
x8gbSmLd9gj2llYR4XjdzAP8NsRaaafNYcfoA2eyW2JKQ0CLmN+iVDPVauIY6Ycq
4rYCkp4y56hFnlJL15WgbqFffiOE0pKMAK9F7AoWvXYbArTWY1nRC4HPwLwONYe0
5AdUv+VCNjtiPNA1j3dCaW9Q6OP/8lWBn1zoq403zFf2dmpa9tu+oLL6VK5IPk79
W/76Vg/IuY+xPW3A6UA9dYJIxvE0tMOW4ePnzdQhQDYucXW4jfscTTle+t69+w0S
hrCgBLFn2+cb20Y9CXC3Ieh4qwhN3qPkeYUbyHwqCR6Pu5VXJ9jo28q2Hcy8C0X5
6WeWPXmLPfPFuoNaHVmtflrYVq1RshjSBapCAO8DyBTL8sQkWkklSBPYzwx00vjm
Ij/Ks16pIkJF8zQwmkkbwvzPNnf652fgUfMe4AhlkQHO6rIdtFnaOvOBNWAf
-----END CERTIFICATE-----
